; Function Attrs: nofree norecurse nosync nounwind memory(argmem: readwrite) uwtable
define internal void @put_vp8_epel4_h4v4_c(ptr noundef writeonly captures(none) %0, i64 noundef %1, ptr noundef readonly captures(none) %2, i64 noundef %3, i32 noundef %4, i32 noundef %5, i32 noundef %6) #1 {
  %8 = alloca [44 x i8], align 16
  call void @llvm.lifetime.start.p0(i64 44, ptr nonnull %8) #5
  %9 = icmp sgt i32 %4, -3
  br i1 %9, label %.preheader62.lr.ph, label %._crit_edge75

.preheader62.lr.ph:                               ; preds = %7
  %10 = sub i64 0, %3
  %11 = getelementptr inbounds i8, ptr %2, i64 %10
  %12 = add nsw i32 %5, -1
  %13 = sext i32 %12 to i64
  %14 = getelementptr inbounds [7 x [6 x i8]], ptr @subpel_filters, i64 0, i64 %13
  %15 = getelementptr inbounds nuw i8, ptr %14, i64 2
  %16 = load i8, ptr %15, align 2, !tbaa !10
  %17 = zext i8 %16 to i32
  %18 = getelementptr inbounds nuw i8, ptr %14, i64 1
  %19 = load i8, ptr %18, align 1, !tbaa !10
  %20 = zext i8 %19 to i32
  %21 = getelementptr inbounds nuw i8, ptr %14, i64 3
  %22 = load i8, ptr %21, align 1, !tbaa !10
  %23 = zext i8 %22 to i32
  %24 = getelementptr inbounds nuw i8, ptr %14, i64 4
  %25 = load i8, ptr %24, align 2, !tbaa !10
  %26 = zext i8 %25 to i32
  %27 = add i32 %4, 2
  %smax = tail call i32 @llvm.smax.i32(i32 %27, i32 0)
  br label %.preheader62

.preheader62:                                     ; preds = %.preheader62.lr.ph, %54
  %.067 = phi ptr [ %8, %.preheader62.lr.ph ], [ %55, %54 ]
  %.04966 = phi i32 [ 0, %.preheader62.lr.ph ], [ %57, %54 ]
  %.05465 = phi ptr [ %11, %.preheader62.lr.ph ], [ %56, %54 ]
  %.pre = load i8, ptr %.05465, align 1, !tbaa !10
  br label %28

28:                                               ; preds = %.preheader62, %28
  %29 = phi i8 [ %.pre, %.preheader62 ], [ %37, %28 ]
  %indvars.iv = phi i64 [ 0, %.preheader62 ], [ %indvars.iv.next, %28 ]
  %30 = getelementptr inbounds nuw i8, ptr %.05465, i64 %indvars.iv
  %31 = zext i8 %29 to i32
  %32 = mul nuw nsw i32 %31, %17
  %33 = getelementptr i8, ptr %30, i64 -1
  %34 = load i8, ptr %33, align 1, !tbaa !10
  %35 = zext i8 %34 to i32
  %indvars.iv.next = add nuw nsw i64 %indvars.iv, 1
  %36 = getelementptr inbounds nuw i8, ptr %.05465, i64 %indvars.iv.next
  %37 = load i8, ptr %36, align 1, !tbaa !10
  %38 = zext i8 %37 to i32
  %39 = mul nuw nsw i32 %38, %23
  %40 = getelementptr inbounds nuw i8, ptr %30, i64 2
  %41 = load i8, ptr %40, align 1, !tbaa !10
  %42 = zext i8 %41 to i32
  %43 = mul nuw nsw i32 %20, %35
  %44 = mul nuw nsw i32 %26, %42
  %45 = add nuw nsw i32 %44, %43
  %46 = add nuw nsw i32 %32, 64
  %47 = add nuw nsw i32 %46, %39
  %48 = sub nsw i32 %47, %45
  %49 = ashr i32 %48, 7
  %50 = sext i32 %49 to i64
  %51 = getelementptr inbounds i8, ptr getelementptr inbounds nuw (i8, ptr @ff_crop_tab, i64 1024), i64 %50
  %52 = load i8, ptr %51, align 1, !tbaa !10
  %53 = getelementptr inbounds nuw i8, ptr %.067, i64 %indvars.iv
  store i8 %52, ptr %53, align 1, !tbaa !10
  %exitcond.not = icmp eq i64 %indvars.iv.next, 4
  br i1 %exitcond.not, label %54, label %28, !llvm.loop !67

54:                                               ; preds = %28
  %55 = getelementptr inbounds nuw i8, ptr %.067, i64 4
  %56 = getelementptr inbounds i8, ptr %.05465, i64 %3
  %57 = add nuw i32 %.04966, 1
  %exitcond77.not = icmp eq i32 %.04966, %smax
  br i1 %exitcond77.not, label %._crit_edge, label %.preheader62, !llvm.loop !68

._crit_edge:                                      ; preds = %54
  %58 = icmp sgt i32 %4, 0
  br i1 %58, label %.preheader.lr.ph, label %._crit_edge75

.preheader.lr.ph:                                 ; preds = %._crit_edge
  %59 = add nsw i32 %6, -1
  %60 = sext i32 %59 to i64
  %61 = getelementptr inbounds [7 x [6 x i8]], ptr @subpel_filters, i64 0, i64 %60
  %62 = getelementptr inbounds nuw i8, ptr %61, i64 2
  %63 = load i8, ptr %62, align 2, !tbaa !10
  %64 = zext i8 %63 to i32
  %65 = getelementptr inbounds nuw i8, ptr %61, i64 1
  %66 = load i8, ptr %65, align 1, !tbaa !10
  %67 = zext i8 %66 to i32
  %68 = getelementptr inbounds nuw i8, ptr %61, i64 3
  %69 = load i8, ptr %68, align 1, !tbaa !10
  %70 = zext i8 %69 to i32
  %71 = getelementptr inbounds nuw i8, ptr %61, i64 4
  %72 = load i8, ptr %71, align 2, !tbaa !10
  %73 = zext i8 %72 to i32
  br label %.preheader

.preheader:                                       ; preds = %.preheader.lr.ph, %100
  %.pn = phi ptr [ %8, %.preheader.lr.ph ], [ %.174, %100 ]
  %.15073 = phi i32 [ 0, %.preheader.lr.ph ], [ %102, %100 ]
  %.05372 = phi ptr [ %0, %.preheader.lr.ph ], [ %101, %100 ]
  %.174 = getelementptr inbounds nuw i8, ptr %.pn, i64 4
  br label %74

74:                                               ; preds = %.preheader, %74
  %indvars.iv78 = phi i64 [ 0, %.preheader ], [ %indvars.iv.next79, %74 ]
  %75 = getelementptr inbounds nuw i8, ptr %.174, i64 %indvars.iv78
  %76 = load i8, ptr %75, align 1, !tbaa !10
  %77 = zext i8 %76 to i32
  %78 = mul nuw nsw i32 %77, %64
  %79 = getelementptr i8, ptr %75, i64 -4
  %80 = load i8, ptr %79, align 1, !tbaa !10
  %81 = zext i8 %80 to i32
  %82 = getelementptr inbounds nuw i8, ptr %75, i64 4
  %83 = load i8, ptr %82, align 1, !tbaa !10
  %84 = zext i8 %83 to i32
  %85 = mul nuw nsw i32 %84, %70
  %86 = getelementptr inbounds nuw i8, ptr %75, i64 8
  %87 = load i8, ptr %86, align 1, !tbaa !10
  %88 = zext i8 %87 to i32
  %89 = mul nuw nsw i32 %67, %81
  %90 = mul nuw nsw i32 %73, %88
  %91 = add nuw nsw i32 %90, %89
  %92 = add nuw nsw i32 %78, 64
  %93 = add nuw nsw i32 %92, %85
  %94 = sub nsw i32 %93, %91
  %95 = ashr i32 %94, 7
  %96 = sext i32 %95 to i64
  %97 = getelementptr inbounds i8, ptr getelementptr inbounds nuw (i8, ptr @ff_crop_tab, i64 1024), i64 %96
  %98 = load i8, ptr %97, align 1, !tbaa !10
  %99 = getelementptr inbounds nuw i8, ptr %.05372, i64 %indvars.iv78
  store i8 %98, ptr %99, align 1, !tbaa !10
  %indvars.iv.next79 = add nuw nsw i64 %indvars.iv78, 1
  %exitcond81.not = icmp eq i64 %indvars.iv.next79, 4
  br i1 %exitcond81.not, label %100, label %74, !llvm.loop !69

100:                                              ; preds = %74
  %101 = getelementptr inbounds i8, ptr %.05372, i64 %1
  %102 = add nuw nsw i32 %.15073, 1
  %exitcond82.not = icmp eq i32 %102, %4
  br i1 %exitcond82.not, label %._crit_edge75, label %.preheader, !llvm.loop !70

._crit_edge75:                                    ; preds = %100, %7, %._crit_edge
  call void @llvm.lifetime.end.p0(i64 44, ptr nonnull %8) #5
  ret void
}